; ModuleID = '39/106.c'
source_filename = "39/106.c"
target datalayout = "e-m:e-p270:32:32-p271:32:32-p272:64:64-i64:64-f80:128-n8:16:32:64-S128"
target triple = "x86_64-pc-linux-gnu"

%struct.student = type { [30 x i8], i32, i32, i8, i8, i32 }

@k = dso_local global i32 0, align 4
@.str = private unnamed_addr constant [3 x i8] c"%d\00", align 1
@.str.1 = private unnamed_addr constant [18 x i8] c"%s %d %d %c %c %d\00", align 1
@.str.2 = private unnamed_addr constant [4 x i8] c"%s\0A\00", align 1
@.str.3 = private unnamed_addr constant [4 x i8] c"%d\0A\00", align 1
@.str.4 = private unnamed_addr constant [4 x i8] c"%ld\00", align 1

; Function Attrs: noinline nounwind uwtable
define dso_local void @main() #0 {
  %1 = alloca i32, align 4
  %2 = alloca i32, align 4
  %3 = alloca [200 x i32], align 16
  %4 = alloca i32, align 4
  %5 = alloca i64, align 8
  %6 = alloca [105 x %struct.student], align 16
  %7 = bitcast [200 x i32]* %3 to i8*
  call void @llvm.memset.p0i8.i64(i8* align 16 %7, i8 0, i64 800, i1 false)
  store i64 0, i64* %5, align 8
  %8 = call i32 (i8*, ...) @__isoc99_scanf(i8* getelementptr inbounds ([3 x i8], [3 x i8]* @.str, i64 0, i64 0), i32* %1)
  store i32 0, i32* %2, align 4
  br label %9

9:                                                ; preds = %54, %0
  %10 = load i32, i32* %2, align 4
  %11 = load i32, i32* %1, align 4
  %12 = icmp slt i32 %10, %11
  br i1 %12, label %13, label %57

13:                                               ; preds = %9
  %14 = load i32, i32* %2, align 4
  %15 = sext i32 %14 to i64
  %16 = getelementptr inbounds [105 x %struct.student], [105 x %struct.student]* %6, i64 0, i64 %15
  %17 = getelementptr inbounds %struct.student, %struct.student* %16, i32 0, i32 0
  %18 = getelementptr inbounds [30 x i8], [30 x i8]* %17, i64 0, i64 0
  %19 = load i32, i32* %2, align 4
  %20 = sext i32 %19 to i64
  %21 = getelementptr inbounds [105 x %struct.student], [105 x %struct.student]* %6, i64 0, i64 %20
  %22 = getelementptr inbounds %struct.student, %struct.student* %21, i32 0, i32 1
  %23 = load i32, i32* %2, align 4
  %24 = sext i32 %23 to i64
  %25 = getelementptr inbounds [105 x %struct.student], [105 x %struct.student]* %6, i64 0, i64 %24
  %26 = getelementptr inbounds %struct.student, %struct.student* %25, i32 0, i32 2
  %27 = load i32, i32* %2, align 4
  %28 = sext i32 %27 to i64
  %29 = getelementptr inbounds [105 x %struct.student], [105 x %struct.student]* %6, i64 0, i64 %28
  %30 = getelementptr inbounds %struct.student, %struct.student* %29, i32 0, i32 3
  %31 = load i32, i32* %2, align 4
  %32 = sext i32 %31 to i64
  %33 = getelementptr inbounds [105 x %struct.student], [105 x %struct.student]* %6, i64 0, i64 %32
  %34 = getelementptr inbounds %struct.student, %struct.student* %33, i32 0, i32 4
  %35 = load i32, i32* %2, align 4
  %36 = sext i32 %35 to i64
  %37 = getelementptr inbounds [105 x %struct.student], [105 x %struct.student]* %6, i64 0, i64 %36
  %38 = getelementptr inbounds %struct.student, %struct.student* %37, i32 0, i32 5
  %39 = call i32 (i8*, ...) @__isoc99_scanf(i8* getelementptr inbounds ([18 x i8], [18 x i8]* @.str.1, i64 0, i64 0), i8* %18, i32* %22, i32* %26, i8* %30, i8* %34, i32* %38)
  %40 = load i32, i32* %2, align 4
  %41 = sext i32 %40 to i64
  %42 = getelementptr inbounds [105 x %struct.student], [105 x %struct.student]* %6, i64 0, i64 %41
  %43 = call i32 @money(%struct.student* byval(%struct.student) align 8 %42)
  %44 = load i32, i32* %2, align 4
  %45 = sext i32 %44 to i64
  %46 = getelementptr inbounds [200 x i32], [200 x i32]* %3, i64 0, i64 %45
  store i32 %43, i32* %46, align 4
  %47 = load i64, i64* %5, align 8
  %48 = load i32, i32* %2, align 4
  %49 = sext i32 %48 to i64
  %50 = getelementptr inbounds [200 x i32], [200 x i32]* %3, i64 0, i64 %49
  %51 = load i32, i32* %50, align 4
  %52 = sext i32 %51 to i64
  %53 = add nsw i64 %47, %52
  store i64 %53, i64* %5, align 8
  br label %54

54:                                               ; preds = %13
  %55 = load i32, i32* %2, align 4
  %56 = add nsw i32 %55, 1
  store i32 %56, i32* %2, align 4
  br label %9

57:                                               ; preds = %9
  %58 = getelementptr inbounds [200 x i32], [200 x i32]* %3, i64 0, i64 0
  %59 = load i32, i32* %1, align 4
  %60 = call i32 @cmp(i32* %58, i32 %59)
  store i32 %60, i32* %4, align 4
  %61 = load i32, i32* @k, align 4
  %62 = sext i32 %61 to i64
  %63 = getelementptr inbounds [105 x %struct.student], [105 x %struct.student]* %6, i64 0, i64 %62
  %64 = getelementptr inbounds %struct.student, %struct.student* %63, i32 0, i32 0
  %65 = getelementptr inbounds [30 x i8], [30 x i8]* %64, i64 0, i64 0
  %66 = call i32 (i8*, ...) @printf(i8* getelementptr inbounds ([4 x i8], [4 x i8]* @.str.2, i64 0, i64 0), i8* %65)
  %67 = load i32, i32* %4, align 4
  %68 = call i32 (i8*, ...) @printf(i8* getelementptr inbounds ([4 x i8], [4 x i8]* @.str.3, i64 0, i64 0), i32 %67)
  %69 = load i64, i64* %5, align 8
  %70 = call i32 (i8*, ...) @printf(i8* getelementptr inbounds ([4 x i8], [4 x i8]* @.str.4, i64 0, i64 0), i64 %69)
  ret void
}

; Function Attrs: argmemonly nounwind willreturn
declare void @llvm.memset.p0i8.i64(i8* nocapture writeonly, i8, i64, i1 immarg) #1

declare dso_local i32 @__isoc99_scanf(i8*, ...) #2

; Function Attrs: noinline nounwind uwtable
define dso_local i32 @money(%struct.student* byval(%struct.student) align 8 %0) #0 {
  %2 = alloca i32, align 4
  store i32 0, i32* %2, align 4
  %3 = getelementptr inbounds %struct.student, %struct.student* %0, i32 0, i32 1
  %4 = load i32, i32* %3, align 8
  %5 = icmp sgt i32 %4, 80
  br i1 %5, label %6, label %11

6:                                                ; preds = %1
  %7 = getelementptr inbounds %struct.student, %struct.student* %0, i32 0, i32 5
  %8 = load i32, i32* %7, align 4
  %9 = icmp sge i32 %8, 1
  br i1 %9, label %10, label %11

10:                                               ; preds = %6
  store i32 8000, i32* %2, align 4
  br label %11

11:                                               ; preds = %10, %6, %1
  %12 = getelementptr inbounds %struct.student, %struct.student* %0, i32 0, i32 2
  %13 = load i32, i32* %12, align 4
  %14 = icmp sgt i32 %13, 80
  br i1 %14, label %15, label %22

15:                                               ; preds = %11
  %16 = getelementptr inbounds %struct.student, %struct.student* %0, i32 0, i32 1
  %17 = load i32, i32* %16, align 8
  %18 = icmp sgt i32 %17, 85
  br i1 %18, label %19, label %22

19:                                               ; preds = %15
  %20 = load i32, i32* %2, align 4
  %21 = add nsw i32 %20, 4000
  store i32 %21, i32* %2, align 4
  br label %22

22:                                               ; preds = %19, %15, %11
  %23 = getelementptr inbounds %struct.student, %struct.student* %0, i32 0, i32 1
  %24 = load i32, i32* %23, align 8
  %25 = icmp sgt i32 %24, 90
  br i1 %25, label %26, label %29

26:                                               ; preds = %22
  %27 = load i32, i32* %2, align 4
  %28 = add nsw i32 %27, 2000
  store i32 %28, i32* %2, align 4
  br label %29

29:                                               ; preds = %26, %22
  %30 = getelementptr inbounds %struct.student, %struct.student* %0, i32 0, i32 1
  %31 = load i32, i32* %30, align 8
  %32 = icmp sgt i32 %31, 85
  br i1 %32, label %33, label %41

33:                                               ; preds = %29
  %34 = getelementptr inbounds %struct.student, %struct.student* %0, i32 0, i32 4
  %35 = load i8, i8* %34, align 1
  %36 = sext i8 %35 to i32
  %37 = icmp eq i32 %36, 89
  br i1 %37, label %38, label %41

38:                                               ; preds = %33
  %39 = load i32, i32* %2, align 4
  %40 = add nsw i32 %39, 1000
  store i32 %40, i32* %2, align 4
  br label %41

41:                                               ; preds = %38, %33, %29
  %42 = getelementptr inbounds %struct.student, %struct.student* %0, i32 0, i32 2
  %43 = load i32, i32* %42, align 4
  %44 = icmp sgt i32 %43, 80
  br i1 %44, label %45, label %53

45:                                               ; preds = %41
  %46 = getelementptr inbounds %struct.student, %struct.student* %0, i32 0, i32 3
  %47 = load i8, i8* %46, align 8
  %48 = sext i8 %47 to i32
  %49 = icmp eq i32 %48, 89
  br i1 %49, label %50, label %53

50:                                               ; preds = %45
  %51 = load i32, i32* %2, align 4
  %52 = add nsw i32 %51, 850
  store i32 %52, i32* %2, align 4
  br label %53

53:                                               ; preds = %50, %45, %41
  %54 = load i32, i32* %2, align 4
  ret i32 %54
}

; Function Attrs: noinline nounwind uwtable
define dso_local i32 @cmp(i32* %0, i32 %1) #0 {
  %3 = alloca i32*, align 8
  %4 = alloca i32, align 4
  %5 = alloca i32, align 4
  %6 = alloca i32, align 4
  store i32* %0, i32** %3, align 8
  store i32 %1, i32* %4, align 4
  %7 = load i32*, i32** %3, align 8
  %8 = getelementptr inbounds i32, i32* %7, i64 0
  %9 = load i32, i32* %8, align 4
  store i32 %9, i32* %5, align 4
  store i32 0, i32* %6, align 4
  br label %10

10:                                               ; preds = %34, %2
  %11 = load i32, i32* %6, align 4
  %12 = load i32, i32* %4, align 4
  %13 = sub nsw i32 %12, 1
  %14 = icmp slt i32 %11, %13
  br i1 %14, label %15, label %37

15:                                               ; preds = %10
  %16 = load i32, i32* %5, align 4
  %17 = load i32*, i32** %3, align 8
  %18 = load i32, i32* %6, align 4
  %19 = add nsw i32 %18, 1
  %20 = sext i32 %19 to i64
  %21 = getelementptr inbounds i32, i32* %17, i64 %20
  %22 = load i32, i32* %21, align 4
  %23 = icmp slt i32 %16, %22
  br i1 %23, label %24, label %33

24:                                               ; preds = %15
  %25 = load i32*, i32** %3, align 8
  %26 = load i32, i32* %6, align 4
  %27 = add nsw i32 %26, 1
  %28 = sext i32 %27 to i64
  %29 = getelementptr inbounds i32, i32* %25, i64 %28
  %30 = load i32, i32* %29, align 4
  store i32 %30, i32* %5, align 4
  %31 = load i32, i32* %6, align 4
  %32 = add nsw i32 %31, 1
  store i32 %32, i32* @k, align 4
  br label %33

33:                                               ; preds = %24, %15
  br label %34

34:                                               ; preds = %33
  %35 = load i32, i32* %6, align 4
  %36 = add nsw i32 %35, 1
  store i32 %36, i32* %6, align 4
  br label %10

37:                                               ; preds = %10
  %38 = load i32, i32* %5, align 4
  ret i32 %38
}

declare dso_local i32 @printf(i8*, ...) #2


!llvm.module.flags = !{!0}
!llvm.ident = !{!1}

!0 = !{i32 1, !"wchar_size", i32 4}
!1 = !{!"clang version 10.0.0-4ubuntu1 "}
